target datalayout = "e-m:e-p270:32:32-p271:32:32-p272:64:64-i64:64-i128:128-f80:128-n8:16:32:64-S128"
target triple = "x86_64-pc-linux-gnu"

%struct.dict = type { ptr, [2 x ptr], [2 x i64], i64, i16, [2 x i8], i16, [0 x ptr] }
%struct.dictExpireMetadata = type { %struct.ExpireMeta, ptr, ptr }
%struct.ExpireMeta = type { i32, i16, i16, ptr }
%struct.redisObject = type { i32, i32, ptr }

@hashFieldExpireBucketsType = dso_local global { ptr, ptr, i32, [4 x i8] } { ptr @hfieldGetExpireMeta, ptr null, i32 1, [4 x i8] zeroinitializer }, align 8

; Function Attrs: inlinehint nounwind uwtable
define internal i32 @isDictWithMetaHFE(ptr noundef %0) #7 {
  %2 = alloca ptr, align 8
  store ptr %0, ptr %2, align 8, !tbaa !5
  %3 = load ptr, ptr %2, align 8, !tbaa !5
  %4 = getelementptr inbounds nuw %struct.dict, ptr %3, i32 0, i32 0
  %5 = load ptr, ptr %4, align 8, !tbaa !128
  %6 = icmp eq ptr %5, @mstrHashDictTypeWithHFE
  %7 = zext i1 %6 to i32
  ret i32 %7
}

; Function Attrs: nounwind uwtable
define dso_local i32 @hashTypeIsFieldsWithExpire(ptr noundef %0) #1 {
  %2 = alloca i32, align 4
  %3 = alloca ptr, align 8
  %4 = alloca ptr, align 8
  %5 = alloca i32, align 4
  %6 = alloca ptr, align 8
  store ptr %0, ptr %3, align 8, !tbaa !15
  %7 = load ptr, ptr %3, align 8, !tbaa !15
  %8 = load i32, ptr %7, align 8
  %9 = lshr i32 %8, 4
  %10 = and i32 %9, 15
  %11 = icmp eq i32 %10, 11
  br i1 %11, label %12, label %13

12:                                               ; preds = %1
  store i32 0, ptr %2, align 4
  br label %42

13:                                               ; preds = %1
  %14 = load ptr, ptr %3, align 8, !tbaa !15
  %15 = load i32, ptr %14, align 8
  %16 = lshr i32 %15, 4
  %17 = and i32 %16, 15
  %18 = icmp eq i32 %17, 12
  br i1 %18, label %19, label %24

19:                                               ; preds = %13
  %20 = load ptr, ptr %3, align 8, !tbaa !15
  %21 = call i64 @listpackExGetMinExpire(ptr noundef %20)
  %22 = icmp ne i64 281474976710656, %21
  %23 = zext i1 %22 to i32
  store i32 %23, ptr %2, align 4
  br label %42

24:                                               ; preds = %13
  call void @llvm.lifetime.start.p0(i64 8, ptr %4) #12
  %25 = load ptr, ptr %3, align 8, !tbaa !15
  %26 = getelementptr inbounds nuw %struct.redisObject, ptr %25, i32 0, i32 2
  %27 = load ptr, ptr %26, align 8, !tbaa !17
  store ptr %27, ptr %4, align 8, !tbaa !5
  %28 = load ptr, ptr %4, align 8, !tbaa !5
  %29 = call i32 @isDictWithMetaHFE(ptr noundef %28)
  %30 = icmp ne i32 %29, 0
  br i1 %30, label %32, label %31

31:                                               ; preds = %24
  store i32 0, ptr %2, align 4
  store i32 1, ptr %5, align 4
  br label %41

32:                                               ; preds = %24
  call void @llvm.lifetime.start.p0(i64 8, ptr %6) #12
  %33 = load ptr, ptr %4, align 8, !tbaa !5
  %34 = getelementptr inbounds nuw %struct.dict, ptr %33, i32 0, i32 7
  store ptr %34, ptr %6, align 8, !tbaa !11
  %35 = load ptr, ptr %6, align 8, !tbaa !11
  %36 = getelementptr inbounds nuw %struct.dictExpireMetadata, ptr %35, i32 0, i32 1
  %37 = load ptr, ptr %36, align 8, !tbaa !74
  %38 = call i64 @ebGetTotalItems(ptr noundef %37, ptr noundef @hashFieldExpireBucketsType)
  %39 = icmp ne i64 %38, 0
  %40 = zext i1 %39 to i32
  store i32 %40, ptr %2, align 4
  store i32 1, ptr %5, align 4
  call void @llvm.lifetime.end.p0(i64 8, ptr %6) #12
  br label %41

41:                                               ; preds = %32, %31
  call void @llvm.lifetime.end.p0(i64 8, ptr %4) #12
  br label %42

42:                                               ; preds = %41, %19, %12
  %43 = load i32, ptr %2, align 4
  ret i32 %43
}