; Function Attrs: nounwind uwtable
define dso_local range(i32 0, 2) i32 @hashTypeIsFieldsWithExpire(ptr noundef readonly captures(none) %0) local_unnamed_addr #1 {
  %2 = load i32, ptr %0, align 8
  %3 = lshr i32 %2, 4
  %4 = and i32 %3, 15
  switch i32 %4, label %8 [
    i32 11, label %16
    i32 12, label %5
  ]

5:                                                ; preds = %1
  %6 = tail call fastcc i64 @listpackExGetMinExpire(ptr noundef nonnull %0)
  %7 = icmp ne i64 %6, 281474976710656
  br label %16

8:                                                ; preds = %1
  %9 = getelementptr inbounds nuw i8, ptr %0, i64 8
  %10 = load ptr, ptr %9, align 8, !tbaa !10
  %.val = load ptr, ptr %10, align 8, !tbaa !56
  %.not = icmp eq ptr %.val, @mstrHashDictTypeWithHFE
  br i1 %.not, label %11, label %16

11:                                               ; preds = %8
  %12 = getelementptr inbounds nuw i8, ptr %10, i64 72
  %13 = load ptr, ptr %12, align 8, !tbaa !58
  %14 = tail call i64 @ebGetTotalItems(ptr noundef %13, ptr noundef nonnull @hashFieldExpireBucketsType) #16
  %15 = icmp ne i64 %14, 0
  br label %16

16:                                               ; preds = %11, %8, %1, %5
  %.0.shrunk = phi i1 [ %7, %5 ], [ false, %1 ], [ %15, %11 ], [ false, %8 ]
  %.0 = zext i1 %.0.shrunk to i32
  ret i32 %.0
}